target datalayout = "e-m:e-p270:32:32-p271:32:32-p272:64:64-i64:64-i128:128-f80:128-n8:16:32:64-S128"
target triple = "x86_64-pc-linux-gnu"

; Function Attrs: nounwind uwtable
define i32 @Java_sun_awt_X11_XlibWrapper_XGetWindowProperty(ptr noundef %0, ptr noundef %1, i64 noundef %2, i64 noundef %3, i64 noundef %4, i64 noundef %5, i64 noundef %6, i64 noundef %7, i64 noundef %8, i64 noundef %9, i64 noundef %10, i64 noundef %11, i64 noundef %12, i64 noundef %13) #0 {
  %15 = alloca ptr, align 8
  %16 = alloca ptr, align 8
  %17 = alloca i64, align 8
  %18 = alloca i64, align 8
  %19 = alloca i64, align 8
  %20 = alloca i64, align 8
  %21 = alloca i64, align 8
  %22 = alloca i64, align 8
  %23 = alloca i64, align 8
  %24 = alloca i64, align 8
  %25 = alloca i64, align 8
  %26 = alloca i64, align 8
  %27 = alloca i64, align 8
  %28 = alloca i64, align 8
  store ptr %0, ptr %15, align 8
  store ptr %1, ptr %16, align 8
  store i64 %2, ptr %17, align 8
  store i64 %3, ptr %18, align 8
  store i64 %4, ptr %19, align 8
  store i64 %5, ptr %20, align 8
  store i64 %6, ptr %21, align 8
  store i64 %7, ptr %22, align 8
  store i64 %8, ptr %23, align 8
  store i64 %9, ptr %24, align 8
  store i64 %10, ptr %25, align 8
  store i64 %11, ptr %26, align 8
  store i64 %12, ptr %27, align 8
  store i64 %13, ptr %28, align 8
  %29 = load i64, ptr %17, align 8
  %30 = inttoptr i64 %29 to ptr
  %31 = load i64, ptr %18, align 8
  %32 = load i64, ptr %19, align 8
  %33 = load i64, ptr %20, align 8
  %34 = load i64, ptr %21, align 8
  %35 = load i64, ptr %22, align 8
  %36 = trunc i64 %35 to i32
  %37 = load i64, ptr %23, align 8
  %38 = load i64, ptr %24, align 8
  %39 = inttoptr i64 %38 to ptr
  %40 = load i64, ptr %25, align 8
  %41 = inttoptr i64 %40 to ptr
  %42 = load i64, ptr %26, align 8
  %43 = inttoptr i64 %42 to ptr
  %44 = load i64, ptr %27, align 8
  %45 = inttoptr i64 %44 to ptr
  %46 = load i64, ptr %28, align 8
  %47 = inttoptr i64 %46 to ptr
  %48 = call i32 @XGetWindowProperty(ptr noundef %30, i64 noundef %31, i64 noundef %32, i64 noundef %33, i64 noundef %34, i32 noundef %36, i64 noundef %37, ptr noundef %39, ptr noundef %41, ptr noundef %43, ptr noundef %45, ptr noundef %47)
  ret i32 %48
}