; Function Attrs: nounwind uwtable
define i32 @Java_sun_awt_X11_XlibWrapper_XGetWindowProperty(ptr nocapture noundef readnone %0, ptr nocapture noundef readnone %1, i64 noundef %2, i64 noundef %3, i64 noundef %4, i64 noundef %5, i64 noundef %6, i64 noundef %7, i64 noundef %8, i64 noundef %9, i64 noundef %10, i64 noundef %11, i64 noundef %12, i64 noundef %13) local_unnamed_addr #0 {
  %15 = inttoptr i64 %2 to ptr
  %16 = trunc i64 %7 to i32
  %17 = inttoptr i64 %9 to ptr
  %18 = inttoptr i64 %10 to ptr
  %19 = inttoptr i64 %11 to ptr
  %20 = inttoptr i64 %12 to ptr
  %21 = inttoptr i64 %13 to ptr
  %22 = tail call i32 @XGetWindowProperty(ptr noundef %15, i64 noundef %3, i64 noundef %4, i64 noundef %5, i64 noundef %6, i32 noundef %16, i64 noundef %8, ptr noundef %17, ptr noundef %18, ptr noundef %19, ptr noundef %20, ptr noundef %21) #14
  ret i32 %22
}